(dp0
S'192.168.0.111'
p1
ccopy_reg
_reconstructor
p2
(cchristie_projectors
ChristieProjector
p3
c__builtin__
object
p4
Ntp5
Rp6
(dp7
S'ip'
p8
g1
sS'style'
p9
S'J'
p10
sS'blend'
p11
NsS'stack'
p12
I1
sS'port'
p13
I3002
sbs.