(dp0
S'192.168.0.131'
p1
ccopy_reg
_reconstructor
p2
(cchristie_projectors
ChristieProjector
p3
c__builtin__
object
p4
Ntp5
Rp6
(dp7
S'ip'
p8
g1
sS'style'
p9
S'J'
p10
sS'blend'
p11
NsS'stack'
p12
I3
sS'port'
p13
I3002
sbsS'192.168.0.121'
p14
g2
(g3
g4
Ntp15
Rp16
(dp17
g8
g14
sg9
g10
sg11
Nsg12
I2
sg13
I3002
sbsS'192.168.0.10'
p18
g2
(g3
g4
Ntp19
Rp20
(dp21
g8
g18
sg9
g10
sg11
Nsg12
I1
sg13
I3002
sbsS'192.168.0.111'
p22
g2
(g3
g4
Ntp23
Rp24
(dp25
g8
S'192.168.0.111'
p26
sg9
S'J'
p27
sg11
Nsg12
I1
sg13
I3002
sbsS'192.168.0.112'
p28
g2
(g3
g4
Ntp29
Rp30
(dp31
g8
g28
sg9
S'J'
p32
sg11
Nsg12
I1
sg13
I3002
sbsS'192.168.0.9'
p33
g2
(g3
g4
Ntp34
Rp35
(dp36
g8
g33
sg9
S'J'
p37
sg11
Nsg12
I9
sg13
I3002
sbs.